(dp0
S'Parsuram Majhi'
p1
(dp2
S'govcheck'
p3
S'y'
p4
sS'nocriminal'
p5
g4
ssS'Sujan Chakraborty'
p6
(dp7
g3
g4
sg5
g4
ssS'Sumitra Mahajan'
p8
(dp9
g3
g4
sg5
g4
ssS'Pankaj Chaudhary'
p10
(dp11
g3
g4
ssS'Kamal Nath'
p12
(dp13
g3
g4
ssS'Khagen Das'
p14
(dp15
g3
g4
sg5
g4
ssS'Shyama Charan Gupta'
p16
(dp17
g3
g4
ssS'Manvendra Singh'
p18
(dp19
g3
g4
sg5
g4
ssS'Ananta Nayak'
p20
(dp21
g3
g4
sg5
g4
ssS'JITIN PRASAD'
p22
(dp23
g3
g4
sg5
g4
ssS'Jual Oram'
p24
(dp25
g3
g4
sg5
g4
sS'nocriminalsuspect'
p26
g4
ssS'Biren Singh Engti'
p27
(dp28
g3
g4
sg5
g4
ssS'Prasanta Pradhan'
p29
(dp30
g3
g4
sg5
g4
ssS'Satyanarayan Jatiya'
p31
(dp32
g3
g4
sg5
g4
ssS'BIJENDRA SINGH'
p33
(dp34
g3
g4
sg5
g4
ssS'Ramakant Yadav'
p35
(dp36
g5
g4
sg26
g4
ssS'Prahlad Joshi'
p37
(dp38
g5
g4
sg26
g4
ssS'Kailash Joshi'
p39
(dp40
g3
g4
sg5
g4
ssS'Sohan Potai'
p41
(dp42
g3
g4
sg5
g4
ssS'Kantilal Bhuria'
p43
(dp44
g3
g4
sg5
g4
ssS'Tukaram '
p45
(dp46
g3
g4
sg5
g4
sg26
g4
ssS'Ganesh Singh'
p47
(dp48
g3
g4
sg5
g4
sg26
g4
ssS'Sushma Swaraj'
p49
(dp50
g3
g4
ssS'Murli Manohar Joshi'
p51
(dp52
g3
g4
ssS'BENI PRASAD VERMA'
p53
(dp54
g3
g4
sg5
g4
ssS'D.V. Sadananda Gowda'
p55
(dp56
g3
g4
ssS'Amitava Nandy'
p57
(dp58
g3
g4
sg5
g4
ssS'Basudeb Barman'
p59
(dp60
g3
g4
sg5
g4
ssS'Mulayam Singh Yadav'
p61
(dp62
g5
g4
sg26
g4
ssS'Neeraj Shekhar'
p63
(dp64
g3
g4
ssS'Ananth Kumar'
p65
(dp66
g3
g4
sg5
g4
sg26
g4
ssS'Kishan Singh Sangwan'
p67
(dp68
g3
g4
sg5
g4
ssS'Dip Gogoi'
p69
(dp70
g3
g4
sg5
g4
ssS'Faggan Singh Kulaste'
p71
(dp72
g3
g4
sg5
g4
ssS'Uday Singh'
p73
(dp74
g3
g4
sg5
g4
ssS'Ashok Argal'
p75
(dp76
g3
g4
ssS'Ramji Lal Suman'
p77
(dp78
g3
g4
ssS'Harin Pathak'
p79
(dp80
g3
g4
sg5
g4
sg26
g4
ssS'Hannan Mollah'
p81
(dp82
g3
g4
sg5
g4
ssS'Nihal Chand'
p83
(dp84
g3
g4
ssS'Rampal Singh'
p85
(dp86
g3
g4
ssS'Akhilesh Yadav'
p87
(dp88
g3
g4
sg5
g4
ssS'Rupchand Paul'
p89
(dp90
g5
g4
ssS'Bhalchandra Yadav'
p91
(dp92
g5
g4
sg26
g4
ssS'Rasa Singh Rawat'
p93
(dp94
g3
g4
sg5
g4
ssS'Vinay Katiyar'
p95
(dp96
g3
g4
ssS'P.C. Gaddigoudar'
p97
(dp98
g3
g4
ssS'Chandrapal Singh'
p99
(dp100
g3
g4
sg5
g4
sg26
g4
ssS'Baliram Kashyap'
p101
(dp102
g3
g4
sg5
g4
sg26
g4
ssS'Shailendra Kumar'
p103
(dp104
g3
g4
sg5
g4
ssS'Pawan Kumar Bansal'
p105
(dp106
g3
g4
sg5
g4
ssS'Vinod Khanna'
p107
(dp108
g3
g4
sg5
g4
ssS'Santosh Gangwar'
p109
(dp110
g5
g4
ssS'Dharmendra Yadav'
p111
(dp112
g3
g4
ssS'Ramesh Bais'
p113
(dp114
g3
g4
sg5
g4
ssS'Srichand Kripalani'
p115
(dp116
g3
g4
ssS'Tarit Baran Topdar'
p117
(dp118
g3
g4
sg5
g4
ssS'RAHUL GANDHI'
p119
(dp120
g3
g4
sg5
g4
ssS'Md. Salim'
p121
(dp122
g5
g4
ssS'A.T. Patil'
p123
(dp124
g5
g4
sg26
g4
ssS'Samik Lahiri'
p125
(dp126
g3
g4
sg5
g4
ssS'Rakesh Singh'
p127
(dp128
g3
g4
sg5
g4
ssS'Mohan Singh'
p129
(dp130
g3
g4
sg5
g4
ssS'Anurag Singh'
p131
(dp132
g3
g4
ssS'Parasnath Yadav'
p133
(dp134
g3
g4
sg5
g4
ssS'Bikram Keshari Deo'
p135
(dp136
g3
g4
sg5
g4
ssS'Susmita Bauri'
p137
(dp138
g3
g4
sg5
g4
ssS'Laxminarayan Pandey'
p139
(dp140
g3
g4
sg5
g4
ssS'MANVENDRA SINGH'
p141
(dp142
g3
g4
sg5
g4
ssS'Dushyant Singh'
p143
(dp144
g3
g4
sg5
g4
ssS'Arun Yadav'
p145
(dp146
g3
g4
ssS'Lakshman Singh'
p147
(dp148
g3
g4
sg5
g4
ssS'RAJ BABBAR'
p149
(dp150
g3
g4
sg5
g4
sg26
g4
ss.